target datalayout = "e-m:e-p270:32:32-p271:32:32-p272:64:64-i64:64-i128:128-f80:128-n8:16:32:64-S128"
target triple = "x86_64-pc-linux-gnu"

%"class.LIEF::MachO::FatBinary" = type { ptr, %"class.std::vector" }
%"class.std::vector" = type { %"struct.std::_Vector_base" }
%"struct.std::_Vector_base" = type { %"struct.std::_Vector_base<std::unique_ptr<LIEF::MachO::Binary>, std::allocator<std::unique_ptr<LIEF::MachO::Binary>>>::_Vector_impl" }
%"struct.std::_Vector_base<std::unique_ptr<LIEF::MachO::Binary>, std::allocator<std::unique_ptr<LIEF::MachO::Binary>>>::_Vector_impl" = type { %"struct.std::_Vector_base<std::unique_ptr<LIEF::MachO::Binary>, std::allocator<std::unique_ptr<LIEF::MachO::Binary>>>::_Vector_impl_data" }
%"struct.std::_Vector_base<std::unique_ptr<LIEF::MachO::Binary>, std::allocator<std::unique_ptr<LIEF::MachO::Binary>>>::_Vector_impl_data" = type { ptr, ptr, ptr }
%"class.LIEF::ref_iterator" = type { ptr, %"class.__gnu_cxx::__normal_iterator", i64 }
%"class.__gnu_cxx::__normal_iterator" = type { ptr }

; Function Attrs: mustprogress nounwind uwtable
define linkonce_odr hidden void @_ZN9__gnu_cxx17__normal_iteratorIPSt10unique_ptrIN4LIEF5MachO6BinaryESt14default_deleteIS4_EESt6vectorIS7_SaIS7_EEEC2ERKS8_(ptr noundef nonnull align 8 dereferenceable(8) %0, ptr noundef nonnull align 8 dereferenceable(8) %1) unnamed_addr #0 comdat align 2 {
  %3 = alloca ptr, align 8
  %4 = alloca ptr, align 8
  store ptr %0, ptr %3, align 8
  store ptr %1, ptr %4, align 8
  %5 = load ptr, ptr %3, align 8
  %6 = getelementptr inbounds %"class.__gnu_cxx::__normal_iterator", ptr %5, i32 0, i32 0
  %7 = load ptr, ptr %4, align 8
  %8 = load ptr, ptr %7, align 8
  store ptr %8, ptr %6, align 8
  ret void
}

; Function Attrs: mustprogress nounwind uwtable
define linkonce_odr hidden noundef i64 @_ZNKSt6vectorISt10unique_ptrIN4LIEF5MachO6BinaryESt14default_deleteIS3_EESaIS6_EE4sizeEv(ptr noundef nonnull align 8 dereferenceable(24) %0) #0 comdat align 2 {
  %2 = alloca ptr, align 8
  store ptr %0, ptr %2, align 8
  %3 = load ptr, ptr %2, align 8
  %4 = getelementptr inbounds %"struct.std::_Vector_base", ptr %3, i32 0, i32 0
  %5 = getelementptr inbounds %"struct.std::_Vector_base<std::unique_ptr<LIEF::MachO::Binary>, std::allocator<std::unique_ptr<LIEF::MachO::Binary>>>::_Vector_impl_data", ptr %4, i32 0, i32 1
  %6 = load ptr, ptr %5, align 8
  %7 = getelementptr inbounds %"struct.std::_Vector_base", ptr %3, i32 0, i32 0
  %8 = getelementptr inbounds %"struct.std::_Vector_base<std::unique_ptr<LIEF::MachO::Binary>, std::allocator<std::unique_ptr<LIEF::MachO::Binary>>>::_Vector_impl_data", ptr %7, i32 0, i32 0
  %9 = load ptr, ptr %8, align 8
  %10 = ptrtoint ptr %6 to i64
  %11 = ptrtoint ptr %9 to i64
  %12 = sub i64 %10, %11
  %13 = sdiv exact i64 %12, 8
  ret i64 %13
}

; Function Attrs: mustprogress nounwind uwtable
define linkonce_odr hidden ptr @_ZNSt6vectorISt10unique_ptrIN4LIEF5MachO6BinaryESt14default_deleteIS3_EESaIS6_EE3endEv(ptr noundef nonnull align 8 dereferenceable(24) %0) #0 comdat align 2 {
  %2 = alloca %"class.__gnu_cxx::__normal_iterator", align 8
  %3 = alloca ptr, align 8
  store ptr %0, ptr %3, align 8
  %4 = load ptr, ptr %3, align 8
  %5 = getelementptr inbounds %"struct.std::_Vector_base", ptr %4, i32 0, i32 0
  %6 = getelementptr inbounds %"struct.std::_Vector_base<std::unique_ptr<LIEF::MachO::Binary>, std::allocator<std::unique_ptr<LIEF::MachO::Binary>>>::_Vector_impl_data", ptr %5, i32 0, i32 1
  call void @_ZN9__gnu_cxx17__normal_iteratorIPSt10unique_ptrIN4LIEF5MachO6BinaryESt14default_deleteIS4_EESt6vectorIS7_SaIS7_EEEC2ERKS8_(ptr noundef nonnull align 8 dereferenceable(8) %2, ptr noundef nonnull align 8 dereferenceable(8) %6) #8
  %7 = getelementptr inbounds %"class.__gnu_cxx::__normal_iterator", ptr %2, i32 0, i32 0
  %8 = load ptr, ptr %7, align 8
  ret ptr %8
}

; Function Attrs: mustprogress nounwind uwtable
define linkonce_odr hidden ptr @_ZNSt6vectorISt10unique_ptrIN4LIEF5MachO6BinaryESt14default_deleteIS3_EESaIS6_EE5beginEv(ptr noundef nonnull align 8 dereferenceable(24) %0) #0 comdat align 2 {
  %2 = alloca %"class.__gnu_cxx::__normal_iterator", align 8
  %3 = alloca ptr, align 8
  store ptr %0, ptr %3, align 8
  %4 = load ptr, ptr %3, align 8
  %5 = getelementptr inbounds %"struct.std::_Vector_base", ptr %4, i32 0, i32 0
  %6 = getelementptr inbounds %"struct.std::_Vector_base<std::unique_ptr<LIEF::MachO::Binary>, std::allocator<std::unique_ptr<LIEF::MachO::Binary>>>::_Vector_impl_data", ptr %5, i32 0, i32 0
  call void @_ZN9__gnu_cxx17__normal_iteratorIPSt10unique_ptrIN4LIEF5MachO6BinaryESt14default_deleteIS4_EESt6vectorIS7_SaIS7_EEEC2ERKS8_(ptr noundef nonnull align 8 dereferenceable(8) %2, ptr noundef nonnull align 8 dereferenceable(8) %6) #8
  %7 = getelementptr inbounds %"class.__gnu_cxx::__normal_iterator", ptr %2, i32 0, i32 0
  %8 = load ptr, ptr %7, align 8
  ret ptr %8
}

; Function Attrs: mustprogress nounwind uwtable
define linkonce_odr hidden noundef i64 @_ZNK4LIEF12ref_iteratorIRSt6vectorISt10unique_ptrINS_5MachO6BinaryESt14default_deleteIS4_EESaIS7_EEPS4_N9__gnu_cxx17__normal_iteratorIPS7_S9_EEE4sizeEv(ptr noundef nonnull align 8 dereferenceable(24) %0) #0 comdat align 2 {
  %2 = alloca ptr, align 8
  store ptr %0, ptr %2, align 8
  %3 = load ptr, ptr %2, align 8
  %4 = getelementptr inbounds %"class.LIEF::ref_iterator", ptr %3, i32 0, i32 0
  %5 = load ptr, ptr %4, align 8
  %6 = call noundef i64 @_ZNKSt6vectorISt10unique_ptrIN4LIEF5MachO6BinaryESt14default_deleteIS3_EESaIS6_EE4sizeEv(ptr noundef nonnull align 8 dereferenceable(24) %5) #8
  ret i64 %6
}

; Function Attrs: mustprogress nounwind uwtable
define linkonce_odr ptr @_ZSt3endISt6vectorISt10unique_ptrIN4LIEF5MachO6BinaryESt14default_deleteIS4_EESaIS7_EEEDTcldtfp_3endEERT_(ptr noundef nonnull align 8 dereferenceable(24) %0) #0 comdat {
  %2 = alloca %"class.__gnu_cxx::__normal_iterator", align 8
  %3 = alloca ptr, align 8
  store ptr %0, ptr %3, align 8
  %4 = load ptr, ptr %3, align 8
  %5 = call ptr @_ZNSt6vectorISt10unique_ptrIN4LIEF5MachO6BinaryESt14default_deleteIS3_EESaIS6_EE3endEv(ptr noundef nonnull align 8 dereferenceable(24) %4) #8
  %6 = getelementptr inbounds %"class.__gnu_cxx::__normal_iterator", ptr %2, i32 0, i32 0
  store ptr %5, ptr %6, align 8
  %7 = getelementptr inbounds %"class.__gnu_cxx::__normal_iterator", ptr %2, i32 0, i32 0
  %8 = load ptr, ptr %7, align 8
  ret ptr %8
}

; Function Attrs: mustprogress nounwind uwtable
define linkonce_odr ptr @_ZSt5beginISt6vectorISt10unique_ptrIN4LIEF5MachO6BinaryESt14default_deleteIS4_EESaIS7_EEEDTcldtfp_5beginEERT_(ptr noundef nonnull align 8 dereferenceable(24) %0) #0 comdat {
  %2 = alloca %"class.__gnu_cxx::__normal_iterator", align 8
  %3 = alloca ptr, align 8
  store ptr %0, ptr %3, align 8
  %4 = load ptr, ptr %3, align 8
  %5 = call ptr @_ZNSt6vectorISt10unique_ptrIN4LIEF5MachO6BinaryESt14default_deleteIS3_EESaIS6_EE5beginEv(ptr noundef nonnull align 8 dereferenceable(24) %4) #8
  %6 = getelementptr inbounds %"class.__gnu_cxx::__normal_iterator", ptr %2, i32 0, i32 0
  store ptr %5, ptr %6, align 8
  %7 = getelementptr inbounds %"class.__gnu_cxx::__normal_iterator", ptr %2, i32 0, i32 0
  %8 = load ptr, ptr %7, align 8
  ret ptr %8
}

; Function Attrs: mustprogress nounwind uwtable
define linkonce_odr hidden void @_ZN9__gnu_cxx17__normal_iteratorIPSt10unique_ptrIN4LIEF5MachO6BinaryESt14default_deleteIS4_EESt6vectorIS7_SaIS7_EEEC2Ev(ptr noundef nonnull align 8 dereferenceable(8) %0) unnamed_addr #0 comdat align 2 {
  %2 = alloca ptr, align 8
  store ptr %0, ptr %2, align 8
  %3 = load ptr, ptr %2, align 8
  %4 = getelementptr inbounds %"class.__gnu_cxx::__normal_iterator", ptr %3, i32 0, i32 0
  store ptr null, ptr %4, align 8
  ret void
}

; Function Attrs: mustprogress uwtable
define linkonce_odr hidden void @_ZNK4LIEF12ref_iteratorIRSt6vectorISt10unique_ptrINS_5MachO6BinaryESt14default_deleteIS4_EESaIS7_EEPS4_N9__gnu_cxx17__normal_iteratorIPS7_S9_EEE3endEv(ptr dead_on_unwind noalias writable sret(%"class.LIEF::ref_iterator") align 8 %0, ptr noundef nonnull align 8 dereferenceable(24) %1) #2 comdat align 2 {
  %3 = alloca ptr, align 8
  %4 = alloca ptr, align 8
  %5 = alloca %"class.__gnu_cxx::__normal_iterator", align 8
  store ptr %0, ptr %3, align 8
  store ptr %1, ptr %4, align 8
  %6 = load ptr, ptr %4, align 8
  %7 = getelementptr inbounds %"class.LIEF::ref_iterator", ptr %6, i32 0, i32 0
  %8 = load ptr, ptr %7, align 8
  call void @_ZN4LIEF12ref_iteratorIRSt6vectorISt10unique_ptrINS_5MachO6BinaryESt14default_deleteIS4_EESaIS7_EEPS4_N9__gnu_cxx17__normal_iteratorIPS7_S9_EEEC2ESA_(ptr noundef nonnull align 8 dereferenceable(24) %0, ptr noundef nonnull align 8 dereferenceable(24) %8)
  %9 = getelementptr inbounds %"class.LIEF::ref_iterator", ptr %0, i32 0, i32 0
  %10 = load ptr, ptr %9, align 8
  %11 = call ptr @_ZSt3endISt6vectorISt10unique_ptrIN4LIEF5MachO6BinaryESt14default_deleteIS4_EESaIS7_EEEDTcldtfp_3endEERT_(ptr noundef nonnull align 8 dereferenceable(24) %10)
  %12 = getelementptr inbounds %"class.__gnu_cxx::__normal_iterator", ptr %5, i32 0, i32 0
  store ptr %11, ptr %12, align 8
  %13 = getelementptr inbounds %"class.LIEF::ref_iterator", ptr %0, i32 0, i32 1
  call void @llvm.memcpy.p0.p0.i64(ptr align 8 %13, ptr align 8 %5, i64 8, i1 false)
  %14 = call noundef i64 @_ZNK4LIEF12ref_iteratorIRSt6vectorISt10unique_ptrINS_5MachO6BinaryESt14default_deleteIS4_EESaIS7_EEPS4_N9__gnu_cxx17__normal_iteratorIPS7_S9_EEE4sizeEv(ptr noundef nonnull align 8 dereferenceable(24) %0)
  %15 = getelementptr inbounds %"class.LIEF::ref_iterator", ptr %0, i32 0, i32 2
  store i64 %14, ptr %15, align 8
  ret void
}

; Function Attrs: mustprogress nounwind uwtable
define linkonce_odr hidden void @_ZN4LIEF12ref_iteratorIRSt6vectorISt10unique_ptrINS_5MachO6BinaryESt14default_deleteIS4_EESaIS7_EEPS4_N9__gnu_cxx17__normal_iteratorIPS7_S9_EEEC2ESA_(ptr noundef nonnull align 8 dereferenceable(24) %0, ptr noundef nonnull align 8 dereferenceable(24) %1) unnamed_addr #0 comdat align 2 {
  %3 = alloca ptr, align 8
  %4 = alloca ptr, align 8
  %5 = alloca %"class.__gnu_cxx::__normal_iterator", align 8
  store ptr %0, ptr %3, align 8
  store ptr %1, ptr %4, align 8
  %6 = load ptr, ptr %3, align 8
  %7 = getelementptr inbounds %"class.LIEF::ref_iterator", ptr %6, i32 0, i32 0
  %8 = load ptr, ptr %4, align 8
  store ptr %8, ptr %7, align 8
  %9 = getelementptr inbounds %"class.LIEF::ref_iterator", ptr %6, i32 0, i32 1
  call void @_ZN9__gnu_cxx17__normal_iteratorIPSt10unique_ptrIN4LIEF5MachO6BinaryESt14default_deleteIS4_EESt6vectorIS7_SaIS7_EEEC2Ev(ptr noundef nonnull align 8 dereferenceable(8) %9) #8
  %10 = getelementptr inbounds %"class.LIEF::ref_iterator", ptr %6, i32 0, i32 2
  store i64 0, ptr %10, align 8
  %11 = getelementptr inbounds %"class.LIEF::ref_iterator", ptr %6, i32 0, i32 0
  %12 = load ptr, ptr %11, align 8
  %13 = call ptr @_ZSt5beginISt6vectorISt10unique_ptrIN4LIEF5MachO6BinaryESt14default_deleteIS4_EESaIS7_EEEDTcldtfp_5beginEERT_(ptr noundef nonnull align 8 dereferenceable(24) %12)
  %14 = getelementptr inbounds %"class.__gnu_cxx::__normal_iterator", ptr %5, i32 0, i32 0
  store ptr %13, ptr %14, align 8
  %15 = getelementptr inbounds %"class.LIEF::ref_iterator", ptr %6, i32 0, i32 1
  call void @llvm.memcpy.p0.p0.i64(ptr align 8 %15, ptr align 8 %5, i64 8, i1 false)
  ret void
}

; Function Attrs: mustprogress uwtable
define void @_ZN4LIEF5MachO9FatBinary3endEv(ptr dead_on_unwind noalias writable sret(%"class.LIEF::ref_iterator") align 8 %0, ptr noundef nonnull align 8 dereferenceable(32) %1) #2 align 2 {
  %3 = alloca ptr, align 8
  %4 = alloca ptr, align 8
  %5 = alloca %"class.LIEF::ref_iterator", align 8
  store ptr %0, ptr %3, align 8
  store ptr %1, ptr %4, align 8
  %6 = load ptr, ptr %4, align 8
  %7 = getelementptr inbounds %"class.LIEF::MachO::FatBinary", ptr %6, i32 0, i32 1
  call void @_ZN4LIEF12ref_iteratorIRSt6vectorISt10unique_ptrINS_5MachO6BinaryESt14default_deleteIS4_EESaIS7_EEPS4_N9__gnu_cxx17__normal_iteratorIPS7_S9_EEEC2ESA_(ptr noundef nonnull align 8 dereferenceable(24) %5, ptr noundef nonnull align 8 dereferenceable(24) %7)
  call void @_ZNK4LIEF12ref_iteratorIRSt6vectorISt10unique_ptrINS_5MachO6BinaryESt14default_deleteIS4_EESaIS7_EEPS4_N9__gnu_cxx17__normal_iteratorIPS7_S9_EEE3endEv(ptr dead_on_unwind writable sret(%"class.LIEF::ref_iterator") align 8 %0, ptr noundef nonnull align 8 dereferenceable(24) %5)
  ret void
}